
BTTestFirmware.elf:     file format elf32-avr

Sections:
Idx Name          Size      VMA       LMA       File off  Algn
  0 .data         0000001a  00800100  000009ee  00000a82  2**0
                  CONTENTS, ALLOC, LOAD, DATA
  1 .text         000009ee  00000000  00000000  00000094  2**1
                  CONTENTS, ALLOC, LOAD, READONLY, CODE
  2 .bss          000000b6  0080011a  0080011a  00000a9c  2**0
                  ALLOC
  3 .stab         00004428  00000000  00000000  00000a9c  2**2
                  CONTENTS, READONLY, DEBUGGING
  4 .stabstr      00004424  00000000  00000000  00004ec4  2**0
                  CONTENTS, READONLY, DEBUGGING

Disassembly of section .text:

00000000 <__vectors>:
   0:	0c 94 62 00 	jmp	0xc4	; 0xc4 <__ctors_end>
   4:	0c 94 8a 00 	jmp	0x114	; 0x114 <__bad_interrupt>
   8:	0c 94 8a 00 	jmp	0x114	; 0x114 <__bad_interrupt>
   c:	0c 94 8a 00 	jmp	0x114	; 0x114 <__bad_interrupt>
  10:	0c 94 8a 00 	jmp	0x114	; 0x114 <__bad_interrupt>
  14:	0c 94 8a 00 	jmp	0x114	; 0x114 <__bad_interrupt>
  18:	0c 94 8a 00 	jmp	0x114	; 0x114 <__bad_interrupt>
  1c:	0c 94 8a 00 	jmp	0x114	; 0x114 <__bad_interrupt>
  20:	0c 94 8a 00 	jmp	0x114	; 0x114 <__bad_interrupt>
  24:	0c 94 94 00 	jmp	0x128	; 0x128 <__vector_9>
  28:	0c 94 8a 00 	jmp	0x114	; 0x114 <__bad_interrupt>
  2c:	0c 94 8a 00 	jmp	0x114	; 0x114 <__bad_interrupt>
  30:	0c 94 8a 00 	jmp	0x114	; 0x114 <__bad_interrupt>
  34:	0c 94 8a 00 	jmp	0x114	; 0x114 <__bad_interrupt>
  38:	0c 94 8a 00 	jmp	0x114	; 0x114 <__bad_interrupt>
  3c:	0c 94 8a 00 	jmp	0x114	; 0x114 <__bad_interrupt>
  40:	0c 94 29 03 	jmp	0x652	; 0x652 <__vector_16>
  44:	0c 94 8a 00 	jmp	0x114	; 0x114 <__bad_interrupt>
  48:	0c 94 b9 01 	jmp	0x372	; 0x372 <__vector_18>
  4c:	0c 94 e8 01 	jmp	0x3d0	; 0x3d0 <__vector_19>
  50:	0c 94 8a 00 	jmp	0x114	; 0x114 <__bad_interrupt>
  54:	0c 94 8a 00 	jmp	0x114	; 0x114 <__bad_interrupt>
  58:	0c 94 8a 00 	jmp	0x114	; 0x114 <__bad_interrupt>
  5c:	0c 94 8a 00 	jmp	0x114	; 0x114 <__bad_interrupt>
  60:	0c 94 8a 00 	jmp	0x114	; 0x114 <__bad_interrupt>
  64:	0c 94 8a 00 	jmp	0x114	; 0x114 <__bad_interrupt>

00000068 <port_to_mode_PGM>:
  68:	00 00 00 00 24 00 27 00 2a 00                       ....$.'.*.

00000072 <port_to_output_PGM>:
  72:	00 00 00 00 25 00 28 00 2b 00                       ....%.(.+.

0000007c <port_to_input_PGM>:
  7c:	00 00 00 00 23 00 26 00 29 00                       ....#.&.).

00000086 <digital_pin_to_port_PGM>:
  86:	04 04 04 04 04 04 04 04 02 02 02 02 02 02 03 03     ................
  96:	03 03 03 03                                         ....

0000009a <digital_pin_to_bit_mask_PGM>:
  9a:	01 02 04 08 10 20 40 80 01 02 04 08 10 20 01 02     ..... @...... ..
  aa:	04 08 10 20                                         ... 

000000ae <digital_pin_to_timer_PGM>:
  ae:	00 00 00 07 00 02 01 00 00 03 04 06 00 00 00 00     ................
  be:	00 00 00 00                                         ....

000000c2 <__ctors_start>:
  c2:	a2 02       	muls	r26, r18

000000c4 <__ctors_end>:
  c4:	11 24       	eor	r1, r1
  c6:	1f be       	out	0x3f, r1	; 63
  c8:	cf ef       	ldi	r28, 0xFF	; 255
  ca:	d4 e0       	ldi	r29, 0x04	; 4
  cc:	de bf       	out	0x3e, r29	; 62
  ce:	cd bf       	out	0x3d, r28	; 61

000000d0 <__do_copy_data>:
  d0:	11 e0       	ldi	r17, 0x01	; 1
  d2:	a0 e0       	ldi	r26, 0x00	; 0
  d4:	b1 e0       	ldi	r27, 0x01	; 1
  d6:	ee ee       	ldi	r30, 0xEE	; 238
  d8:	f9 e0       	ldi	r31, 0x09	; 9
  da:	02 c0       	rjmp	.+4      	; 0xe0 <__do_copy_data+0x10>
  dc:	05 90       	lpm	r0, Z+
  de:	0d 92       	st	X+, r0
  e0:	aa 31       	cpi	r26, 0x1A	; 26
  e2:	b1 07       	cpc	r27, r17
  e4:	d9 f7       	brne	.-10     	; 0xdc <__do_copy_data+0xc>

000000e6 <__do_clear_bss>:
  e6:	11 e0       	ldi	r17, 0x01	; 1
  e8:	aa e1       	ldi	r26, 0x1A	; 26
  ea:	b1 e0       	ldi	r27, 0x01	; 1
  ec:	01 c0       	rjmp	.+2      	; 0xf0 <.do_clear_bss_start>

000000ee <.do_clear_bss_loop>:
  ee:	1d 92       	st	X+, r1

000000f0 <.do_clear_bss_start>:
  f0:	a0 3d       	cpi	r26, 0xD0	; 208
  f2:	b1 07       	cpc	r27, r17
  f4:	e1 f7       	brne	.-8      	; 0xee <.do_clear_bss_loop>

000000f6 <__do_global_ctors>:
  f6:	10 e0       	ldi	r17, 0x00	; 0
  f8:	c4 ec       	ldi	r28, 0xC4	; 196
  fa:	d0 e0       	ldi	r29, 0x00	; 0
  fc:	04 c0       	rjmp	.+8      	; 0x106 <__do_global_ctors+0x10>
  fe:	22 97       	sbiw	r28, 0x02	; 2
 100:	fe 01       	movw	r30, r28
 102:	0e 94 f1 04 	call	0x9e2	; 0x9e2 <__tablejump__>
 106:	c2 3c       	cpi	r28, 0xC2	; 194
 108:	d1 07       	cpc	r29, r17
 10a:	c9 f7       	brne	.-14     	; 0xfe <__do_global_ctors+0x8>
 10c:	0e 94 00 01 	call	0x200	; 0x200 <main>
 110:	0c 94 f5 04 	jmp	0x9ea	; 0x9ea <_exit>

00000114 <__bad_interrupt>:
 114:	0c 94 00 00 	jmp	0	; 0x0 <__vectors>

00000118 <_ZN14HardwareSerial5writeEi>:
    virtual void flush(void);
    virtual size_t write(uint8_t);
    inline size_t write(unsigned long n) { return write((uint8_t)n); }
    inline size_t write(long n) { return write((uint8_t)n); }
    inline size_t write(unsigned int n) { return write((uint8_t)n); }
    inline size_t write(int n) { return write((uint8_t)n); }
 118:	dc 01       	movw	r26, r24
 11a:	ed 91       	ld	r30, X+
 11c:	fc 91       	ld	r31, X
 11e:	01 90       	ld	r0, Z+
 120:	f0 81       	ld	r31, Z
 122:	e0 2d       	mov	r30, r0
 124:	09 95       	icall
 126:	08 95       	ret

00000128 <__vector_9>:
static const uint8_t BT_STATUS = 2;

unsigned int timeout = 0;
unsigned char state = 0;
ISR(TIMER2_OVF_vect)
{
 128:	1f 92       	push	r1
 12a:	0f 92       	push	r0
 12c:	0f b6       	in	r0, 0x3f	; 63
 12e:	0f 92       	push	r0
 130:	11 24       	eor	r1, r1
 132:	8f 93       	push	r24
 134:	9f 93       	push	r25
	TCNT2 = 0;
 136:	10 92 b2 00 	sts	0x00B2, r1
	timeout++;
 13a:	80 91 1a 01 	lds	r24, 0x011A
 13e:	90 91 1b 01 	lds	r25, 0x011B
 142:	01 96       	adiw	r24, 0x01	; 1
 144:	90 93 1b 01 	sts	0x011B, r25
 148:	80 93 1a 01 	sts	0x011A, r24
	if (timeout>61)
 14c:	8e 33       	cpi	r24, 0x3E	; 62
 14e:	91 05       	cpc	r25, r1
 150:	38 f0       	brcs	.+14     	; 0x160 <__vector_9+0x38>
	{
		state=1;
 152:	81 e0       	ldi	r24, 0x01	; 1
 154:	80 93 1c 01 	sts	0x011C, r24
		timeout=0;
 158:	10 92 1b 01 	sts	0x011B, r1
 15c:	10 92 1a 01 	sts	0x011A, r1
	}
//Timer2 Service
}
 160:	9f 91       	pop	r25
 162:	8f 91       	pop	r24
 164:	0f 90       	pop	r0
 166:	0f be       	out	0x3f, r0	; 63
 168:	0f 90       	pop	r0
 16a:	1f 90       	pop	r1
 16c:	18 95       	reti

0000016e <setup>:
	state = 0;
}

void setup() {

	Serial.begin(9600);
 16e:	85 ea       	ldi	r24, 0xA5	; 165
 170:	91 e0       	ldi	r25, 0x01	; 1
 172:	40 e8       	ldi	r20, 0x80	; 128
 174:	55 e2       	ldi	r21, 0x25	; 37
 176:	60 e0       	ldi	r22, 0x00	; 0
 178:	70 e0       	ldi	r23, 0x00	; 0
 17a:	0e 94 23 02 	call	0x446	; 0x446 <_ZN14HardwareSerial5beginEm>
	pinMode(BT_STATUS, INPUT);
 17e:	82 e0       	ldi	r24, 0x02	; 2
 180:	60 e0       	ldi	r22, 0x00	; 0
 182:	0e 94 26 04 	call	0x84c	; 0x84c <pinMode>
	pinMode(13, OUTPUT);
 186:	8d e0       	ldi	r24, 0x0D	; 13
 188:	61 e0       	ldi	r22, 0x01	; 1
 18a:	0e 94 26 04 	call	0x84c	; 0x84c <pinMode>
#else
	//sei();
	//delay(1000);
	//state = 1;
#endif
}
 18e:	08 95       	ret

00000190 <loop>:

void loop() {
	switch (digitalRead(BT_STATUS)) {
 190:	82 e0       	ldi	r24, 0x02	; 2
 192:	0e 94 a3 04 	call	0x946	; 0x946 <digitalRead>
 196:	00 97       	sbiw	r24, 0x00	; 0
 198:	21 f0       	breq	.+8      	; 0x1a2 <loop+0x12>
 19a:	81 30       	cpi	r24, 0x01	; 1
 19c:	91 05       	cpc	r25, r1
 19e:	79 f5       	brne	.+94     	; 0x1fe <loop+0x6e>
 1a0:	0b c0       	rjmp	.+22     	; 0x1b8 <loop+0x28>
	case 0:
		digitalWrite(13, LOW);
 1a2:	8d e0       	ldi	r24, 0x0D	; 13
 1a4:	60 e0       	ldi	r22, 0x00	; 0
 1a6:	0e 94 6b 04 	call	0x8d6	; 0x8d6 <digitalWrite>
		delay(100);
 1aa:	64 e6       	ldi	r22, 0x64	; 100
 1ac:	70 e0       	ldi	r23, 0x00	; 0
 1ae:	80 e0       	ldi	r24, 0x00	; 0
 1b0:	90 e0       	ldi	r25, 0x00	; 0
 1b2:	0e 94 97 03 	call	0x72e	; 0x72e <delay>
		//state = 1;
		break;
 1b6:	08 95       	ret
	case 1:
		digitalWrite(13, HIGH);
 1b8:	8d e0       	ldi	r24, 0x0D	; 13
 1ba:	61 e0       	ldi	r22, 0x01	; 1
 1bc:	0e 94 6b 04 	call	0x8d6	; 0x8d6 <digitalWrite>
		Serial.print("Hellow BT");
 1c0:	85 ea       	ldi	r24, 0xA5	; 165
 1c2:	91 e0       	ldi	r25, 0x01	; 1
 1c4:	60 e0       	ldi	r22, 0x00	; 0
 1c6:	71 e0       	ldi	r23, 0x01	; 1
 1c8:	0e 94 26 03 	call	0x64c	; 0x64c <_ZN5Print5printEPKc>
		Serial.write(Serial.read());
 1cc:	85 ea       	ldi	r24, 0xA5	; 165
 1ce:	91 e0       	ldi	r25, 0x01	; 1
 1d0:	0e 94 36 01 	call	0x26c	; 0x26c <_ZN14HardwareSerial4readEv>
 1d4:	bc 01       	movw	r22, r24
 1d6:	85 ea       	ldi	r24, 0xA5	; 165
 1d8:	91 e0       	ldi	r25, 0x01	; 1
 1da:	0e 94 8c 00 	call	0x118	; 0x118 <_ZN14HardwareSerial5writeEi>
		Serial.write('\n');
 1de:	85 ea       	ldi	r24, 0xA5	; 165
 1e0:	91 e0       	ldi	r25, 0x01	; 1
 1e2:	6a e0       	ldi	r22, 0x0A	; 10
 1e4:	70 e0       	ldi	r23, 0x00	; 0
 1e6:	0e 94 8c 00 	call	0x118	; 0x118 <_ZN14HardwareSerial5writeEi>
		Serial.flush();
 1ea:	85 ea       	ldi	r24, 0xA5	; 165
 1ec:	91 e0       	ldi	r25, 0x01	; 1
 1ee:	0e 94 58 01 	call	0x2b0	; 0x2b0 <_ZN14HardwareSerial5flushEv>
		delay(1000);
 1f2:	68 ee       	ldi	r22, 0xE8	; 232
 1f4:	73 e0       	ldi	r23, 0x03	; 3
 1f6:	80 e0       	ldi	r24, 0x00	; 0
 1f8:	90 e0       	ldi	r25, 0x00	; 0
 1fa:	0e 94 97 03 	call	0x72e	; 0x72e <delay>
 1fe:	08 95       	ret

00000200 <main>:



int main(void)
{
	init();
 200:	0e 94 be 03 	call	0x77c	; 0x77c <init>

	setup();
 204:	0e 94 b7 00 	call	0x16e	; 0x16e <setup>

	for (;;)
		loop();
 208:	0e 94 c8 00 	call	0x190	; 0x190 <loop>
 20c:	fd cf       	rjmp	.-6      	; 0x208 <main+0x8>

0000020e <_ZN14HardwareSerial9availableEv>:
 20e:	fc 01       	movw	r30, r24
 210:	84 85       	ldd	r24, Z+12	; 0x0c
 212:	95 85       	ldd	r25, Z+13	; 0x0d
 214:	fc 01       	movw	r30, r24
 216:	e0 5c       	subi	r30, 0xC0	; 192
 218:	ff 4f       	sbci	r31, 0xFF	; 255
 21a:	20 81       	ld	r18, Z
 21c:	31 81       	ldd	r19, Z+1	; 0x01
 21e:	8e 5b       	subi	r24, 0xBE	; 190
 220:	9f 4f       	sbci	r25, 0xFF	; 255
 222:	fc 01       	movw	r30, r24
 224:	80 81       	ld	r24, Z
 226:	91 81       	ldd	r25, Z+1	; 0x01
 228:	28 1b       	sub	r18, r24
 22a:	39 0b       	sbc	r19, r25
 22c:	2f 73       	andi	r18, 0x3F	; 63
 22e:	30 70       	andi	r19, 0x00	; 0
 230:	c9 01       	movw	r24, r18
 232:	08 95       	ret

00000234 <_ZN14HardwareSerial4peekEv>:
 234:	fc 01       	movw	r30, r24
 236:	84 85       	ldd	r24, Z+12	; 0x0c
 238:	95 85       	ldd	r25, Z+13	; 0x0d
 23a:	fc 01       	movw	r30, r24
 23c:	e0 5c       	subi	r30, 0xC0	; 192
 23e:	ff 4f       	sbci	r31, 0xFF	; 255
 240:	40 81       	ld	r20, Z
 242:	51 81       	ldd	r21, Z+1	; 0x01
 244:	fc 01       	movw	r30, r24
 246:	ee 5b       	subi	r30, 0xBE	; 190
 248:	ff 4f       	sbci	r31, 0xFF	; 255
 24a:	20 81       	ld	r18, Z
 24c:	31 81       	ldd	r19, Z+1	; 0x01
 24e:	42 17       	cp	r20, r18
 250:	53 07       	cpc	r21, r19
 252:	41 f0       	breq	.+16     	; 0x264 <_ZN14HardwareSerial4peekEv+0x30>
 254:	01 90       	ld	r0, Z+
 256:	f0 81       	ld	r31, Z
 258:	e0 2d       	mov	r30, r0
 25a:	e8 0f       	add	r30, r24
 25c:	f9 1f       	adc	r31, r25
 25e:	20 81       	ld	r18, Z
 260:	30 e0       	ldi	r19, 0x00	; 0
 262:	02 c0       	rjmp	.+4      	; 0x268 <_ZN14HardwareSerial4peekEv+0x34>
 264:	2f ef       	ldi	r18, 0xFF	; 255
 266:	3f ef       	ldi	r19, 0xFF	; 255
 268:	c9 01       	movw	r24, r18
 26a:	08 95       	ret

0000026c <_ZN14HardwareSerial4readEv>:
 26c:	fc 01       	movw	r30, r24
 26e:	84 85       	ldd	r24, Z+12	; 0x0c
 270:	95 85       	ldd	r25, Z+13	; 0x0d
 272:	fc 01       	movw	r30, r24
 274:	e0 5c       	subi	r30, 0xC0	; 192
 276:	ff 4f       	sbci	r31, 0xFF	; 255
 278:	40 81       	ld	r20, Z
 27a:	51 81       	ldd	r21, Z+1	; 0x01
 27c:	fc 01       	movw	r30, r24
 27e:	ee 5b       	subi	r30, 0xBE	; 190
 280:	ff 4f       	sbci	r31, 0xFF	; 255
 282:	20 81       	ld	r18, Z
 284:	31 81       	ldd	r19, Z+1	; 0x01
 286:	42 17       	cp	r20, r18
 288:	53 07       	cpc	r21, r19
 28a:	71 f0       	breq	.+28     	; 0x2a8 <_ZN14HardwareSerial4readEv+0x3c>
 28c:	a0 81       	ld	r26, Z
 28e:	b1 81       	ldd	r27, Z+1	; 0x01
 290:	a8 0f       	add	r26, r24
 292:	b9 1f       	adc	r27, r25
 294:	2c 91       	ld	r18, X
 296:	80 81       	ld	r24, Z
 298:	91 81       	ldd	r25, Z+1	; 0x01
 29a:	01 96       	adiw	r24, 0x01	; 1
 29c:	8f 73       	andi	r24, 0x3F	; 63
 29e:	90 70       	andi	r25, 0x00	; 0
 2a0:	91 83       	std	Z+1, r25	; 0x01
 2a2:	80 83       	st	Z, r24
 2a4:	30 e0       	ldi	r19, 0x00	; 0
 2a6:	02 c0       	rjmp	.+4      	; 0x2ac <_ZN14HardwareSerial4readEv+0x40>
 2a8:	2f ef       	ldi	r18, 0xFF	; 255
 2aa:	3f ef       	ldi	r19, 0xFF	; 255
 2ac:	c9 01       	movw	r24, r18
 2ae:	08 95       	ret

000002b0 <_ZN14HardwareSerial5flushEv>:
 2b0:	fc 01       	movw	r30, r24
 2b2:	81 a1       	ldd	r24, Z+33	; 0x21
 2b4:	88 23       	and	r24, r24
 2b6:	29 f0       	breq	.+10     	; 0x2c2 <_ZN14HardwareSerial5flushEv+0x12>
 2b8:	a4 89       	ldd	r26, Z+20	; 0x14
 2ba:	b5 89       	ldd	r27, Z+21	; 0x15
 2bc:	8c 91       	ld	r24, X
 2be:	86 ff       	sbrs	r24, 6
 2c0:	fb cf       	rjmp	.-10     	; 0x2b8 <_ZN14HardwareSerial5flushEv+0x8>
 2c2:	11 a2       	std	Z+33, r1	; 0x21
 2c4:	08 95       	ret

000002c6 <_ZN14HardwareSerial5writeEh>:
 2c6:	fc 01       	movw	r30, r24
 2c8:	26 85       	ldd	r18, Z+14	; 0x0e
 2ca:	37 85       	ldd	r19, Z+15	; 0x0f
 2cc:	d9 01       	movw	r26, r18
 2ce:	a0 5c       	subi	r26, 0xC0	; 192
 2d0:	bf 4f       	sbci	r27, 0xFF	; 255
 2d2:	8d 91       	ld	r24, X+
 2d4:	9c 91       	ld	r25, X
 2d6:	01 96       	adiw	r24, 0x01	; 1
 2d8:	8f 73       	andi	r24, 0x3F	; 63
 2da:	90 70       	andi	r25, 0x00	; 0
 2dc:	d9 01       	movw	r26, r18
 2de:	ae 5b       	subi	r26, 0xBE	; 190
 2e0:	bf 4f       	sbci	r27, 0xFF	; 255
 2e2:	4d 91       	ld	r20, X+
 2e4:	5c 91       	ld	r21, X
 2e6:	11 97       	sbiw	r26, 0x01	; 1
 2e8:	84 17       	cp	r24, r20
 2ea:	95 07       	cpc	r25, r21
 2ec:	d1 f3       	breq	.-12     	; 0x2e2 <_ZN14HardwareSerial5writeEh+0x1c>
 2ee:	d9 01       	movw	r26, r18
 2f0:	a0 5c       	subi	r26, 0xC0	; 192
 2f2:	bf 4f       	sbci	r27, 0xFF	; 255
 2f4:	0d 90       	ld	r0, X+
 2f6:	bc 91       	ld	r27, X
 2f8:	a0 2d       	mov	r26, r0
 2fa:	a2 0f       	add	r26, r18
 2fc:	b3 1f       	adc	r27, r19
 2fe:	6c 93       	st	X, r22
 300:	a6 85       	ldd	r26, Z+14	; 0x0e
 302:	b7 85       	ldd	r27, Z+15	; 0x0f
 304:	a0 5c       	subi	r26, 0xC0	; 192
 306:	bf 4f       	sbci	r27, 0xFF	; 255
 308:	11 96       	adiw	r26, 0x01	; 1
 30a:	9c 93       	st	X, r25
 30c:	8e 93       	st	-X, r24
 30e:	a6 89       	ldd	r26, Z+22	; 0x16
 310:	b7 89       	ldd	r27, Z+23	; 0x17
 312:	2c 91       	ld	r18, X
 314:	81 e0       	ldi	r24, 0x01	; 1
 316:	90 e0       	ldi	r25, 0x00	; 0
 318:	07 8c       	ldd	r0, Z+31	; 0x1f
 31a:	02 c0       	rjmp	.+4      	; 0x320 <_ZN14HardwareSerial5writeEh+0x5a>
 31c:	88 0f       	add	r24, r24
 31e:	99 1f       	adc	r25, r25
 320:	0a 94       	dec	r0
 322:	e2 f7       	brpl	.-8      	; 0x31c <_ZN14HardwareSerial5writeEh+0x56>
 324:	28 2b       	or	r18, r24
 326:	2c 93       	st	X, r18
 328:	81 e0       	ldi	r24, 0x01	; 1
 32a:	81 a3       	std	Z+33, r24	; 0x21
 32c:	04 88       	ldd	r0, Z+20	; 0x14
 32e:	f5 89       	ldd	r31, Z+21	; 0x15
 330:	e0 2d       	mov	r30, r0
 332:	80 81       	ld	r24, Z
 334:	80 64       	ori	r24, 0x40	; 64
 336:	80 83       	st	Z, r24
 338:	81 e0       	ldi	r24, 0x01	; 1
 33a:	90 e0       	ldi	r25, 0x00	; 0
 33c:	08 95       	ret

0000033e <_Z10store_charhP11ring_buffer>:
 33e:	fb 01       	movw	r30, r22
 340:	e0 5c       	subi	r30, 0xC0	; 192
 342:	ff 4f       	sbci	r31, 0xFF	; 255
 344:	20 81       	ld	r18, Z
 346:	31 81       	ldd	r19, Z+1	; 0x01
 348:	2f 5f       	subi	r18, 0xFF	; 255
 34a:	3f 4f       	sbci	r19, 0xFF	; 255
 34c:	2f 73       	andi	r18, 0x3F	; 63
 34e:	30 70       	andi	r19, 0x00	; 0
 350:	db 01       	movw	r26, r22
 352:	ae 5b       	subi	r26, 0xBE	; 190
 354:	bf 4f       	sbci	r27, 0xFF	; 255
 356:	4d 91       	ld	r20, X+
 358:	5c 91       	ld	r21, X
 35a:	11 97       	sbiw	r26, 0x01	; 1
 35c:	24 17       	cp	r18, r20
 35e:	35 07       	cpc	r19, r21
 360:	39 f0       	breq	.+14     	; 0x370 <_Z10store_charhP11ring_buffer+0x32>
 362:	a0 81       	ld	r26, Z
 364:	b1 81       	ldd	r27, Z+1	; 0x01
 366:	a6 0f       	add	r26, r22
 368:	b7 1f       	adc	r27, r23
 36a:	8c 93       	st	X, r24
 36c:	31 83       	std	Z+1, r19	; 0x01
 36e:	20 83       	st	Z, r18
 370:	08 95       	ret

00000372 <__vector_18>:
 372:	1f 92       	push	r1
 374:	0f 92       	push	r0
 376:	0f b6       	in	r0, 0x3f	; 63
 378:	0f 92       	push	r0
 37a:	11 24       	eor	r1, r1
 37c:	2f 93       	push	r18
 37e:	3f 93       	push	r19
 380:	4f 93       	push	r20
 382:	5f 93       	push	r21
 384:	6f 93       	push	r22
 386:	7f 93       	push	r23
 388:	8f 93       	push	r24
 38a:	9f 93       	push	r25
 38c:	af 93       	push	r26
 38e:	bf 93       	push	r27
 390:	ef 93       	push	r30
 392:	ff 93       	push	r31
 394:	80 91 c0 00 	lds	r24, 0x00C0
 398:	82 fd       	sbrc	r24, 2
 39a:	07 c0       	rjmp	.+14     	; 0x3aa <__vector_18+0x38>
 39c:	80 91 c6 00 	lds	r24, 0x00C6
 3a0:	6d e1       	ldi	r22, 0x1D	; 29
 3a2:	71 e0       	ldi	r23, 0x01	; 1
 3a4:	0e 94 9f 01 	call	0x33e	; 0x33e <_Z10store_charhP11ring_buffer>
 3a8:	02 c0       	rjmp	.+4      	; 0x3ae <__vector_18+0x3c>
 3aa:	80 91 c6 00 	lds	r24, 0x00C6
 3ae:	ff 91       	pop	r31
 3b0:	ef 91       	pop	r30
 3b2:	bf 91       	pop	r27
 3b4:	af 91       	pop	r26
 3b6:	9f 91       	pop	r25
 3b8:	8f 91       	pop	r24
 3ba:	7f 91       	pop	r23
 3bc:	6f 91       	pop	r22
 3be:	5f 91       	pop	r21
 3c0:	4f 91       	pop	r20
 3c2:	3f 91       	pop	r19
 3c4:	2f 91       	pop	r18
 3c6:	0f 90       	pop	r0
 3c8:	0f be       	out	0x3f, r0	; 63
 3ca:	0f 90       	pop	r0
 3cc:	1f 90       	pop	r1
 3ce:	18 95       	reti

000003d0 <__vector_19>:
 3d0:	1f 92       	push	r1
 3d2:	0f 92       	push	r0
 3d4:	0f b6       	in	r0, 0x3f	; 63
 3d6:	0f 92       	push	r0
 3d8:	11 24       	eor	r1, r1
 3da:	2f 93       	push	r18
 3dc:	3f 93       	push	r19
 3de:	8f 93       	push	r24
 3e0:	9f 93       	push	r25
 3e2:	ef 93       	push	r30
 3e4:	ff 93       	push	r31
 3e6:	20 91 a1 01 	lds	r18, 0x01A1
 3ea:	30 91 a2 01 	lds	r19, 0x01A2
 3ee:	80 91 a3 01 	lds	r24, 0x01A3
 3f2:	90 91 a4 01 	lds	r25, 0x01A4
 3f6:	28 17       	cp	r18, r24
 3f8:	39 07       	cpc	r19, r25
 3fa:	31 f4       	brne	.+12     	; 0x408 <__vector_19+0x38>
 3fc:	80 91 c1 00 	lds	r24, 0x00C1
 400:	8f 7d       	andi	r24, 0xDF	; 223
 402:	80 93 c1 00 	sts	0x00C1, r24
 406:	14 c0       	rjmp	.+40     	; 0x430 <__vector_19+0x60>
 408:	e0 91 a3 01 	lds	r30, 0x01A3
 40c:	f0 91 a4 01 	lds	r31, 0x01A4
 410:	ef 59       	subi	r30, 0x9F	; 159
 412:	fe 4f       	sbci	r31, 0xFE	; 254
 414:	20 81       	ld	r18, Z
 416:	80 91 a3 01 	lds	r24, 0x01A3
 41a:	90 91 a4 01 	lds	r25, 0x01A4
 41e:	01 96       	adiw	r24, 0x01	; 1
 420:	8f 73       	andi	r24, 0x3F	; 63
 422:	90 70       	andi	r25, 0x00	; 0
 424:	90 93 a4 01 	sts	0x01A4, r25
 428:	80 93 a3 01 	sts	0x01A3, r24
 42c:	20 93 c6 00 	sts	0x00C6, r18
 430:	ff 91       	pop	r31
 432:	ef 91       	pop	r30
 434:	9f 91       	pop	r25
 436:	8f 91       	pop	r24
 438:	3f 91       	pop	r19
 43a:	2f 91       	pop	r18
 43c:	0f 90       	pop	r0
 43e:	0f be       	out	0x3f, r0	; 63
 440:	0f 90       	pop	r0
 442:	1f 90       	pop	r1
 444:	18 95       	reti

00000446 <_ZN14HardwareSerial5beginEm>:
 446:	df 92       	push	r13
 448:	ef 92       	push	r14
 44a:	ff 92       	push	r15
 44c:	0f 93       	push	r16
 44e:	1f 93       	push	r17
 450:	cf 93       	push	r28
 452:	df 93       	push	r29
 454:	ec 01       	movw	r28, r24
 456:	7a 01       	movw	r14, r20
 458:	8b 01       	movw	r16, r22
 45a:	dd 24       	eor	r13, r13
 45c:	d3 94       	inc	r13
 45e:	40 30       	cpi	r20, 0x00	; 0
 460:	81 ee       	ldi	r24, 0xE1	; 225
 462:	58 07       	cpc	r21, r24
 464:	80 e0       	ldi	r24, 0x00	; 0
 466:	68 07       	cpc	r22, r24
 468:	80 e0       	ldi	r24, 0x00	; 0
 46a:	78 07       	cpc	r23, r24
 46c:	49 f4       	brne	.+18     	; 0x480 <_ZN14HardwareSerial5beginEm+0x3a>
 46e:	dd 24       	eor	r13, r13
 470:	ec 89       	ldd	r30, Y+20	; 0x14
 472:	fd 89       	ldd	r31, Y+21	; 0x15
 474:	10 82       	st	Z, r1
 476:	60 e8       	ldi	r22, 0x80	; 128
 478:	74 e8       	ldi	r23, 0x84	; 132
 47a:	8e e1       	ldi	r24, 0x1E	; 30
 47c:	90 e0       	ldi	r25, 0x00	; 0
 47e:	0f c0       	rjmp	.+30     	; 0x49e <_ZN14HardwareSerial5beginEm+0x58>
 480:	ec 89       	ldd	r30, Y+20	; 0x14
 482:	fd 89       	ldd	r31, Y+21	; 0x15
 484:	81 e0       	ldi	r24, 0x01	; 1
 486:	90 e0       	ldi	r25, 0x00	; 0
 488:	08 a0       	ldd	r0, Y+32	; 0x20
 48a:	02 c0       	rjmp	.+4      	; 0x490 <_ZN14HardwareSerial5beginEm+0x4a>
 48c:	88 0f       	add	r24, r24
 48e:	99 1f       	adc	r25, r25
 490:	0a 94       	dec	r0
 492:	e2 f7       	brpl	.-8      	; 0x48c <_ZN14HardwareSerial5beginEm+0x46>
 494:	80 83       	st	Z, r24
 496:	60 e0       	ldi	r22, 0x00	; 0
 498:	79 e0       	ldi	r23, 0x09	; 9
 49a:	8d e3       	ldi	r24, 0x3D	; 61
 49c:	90 e0       	ldi	r25, 0x00	; 0
 49e:	a8 01       	movw	r20, r16
 4a0:	97 01       	movw	r18, r14
 4a2:	0e 94 cd 04 	call	0x99a	; 0x99a <__udivmodsi4>
 4a6:	21 50       	subi	r18, 0x01	; 1
 4a8:	30 40       	sbci	r19, 0x00	; 0
 4aa:	40 40       	sbci	r20, 0x00	; 0
 4ac:	50 40       	sbci	r21, 0x00	; 0
 4ae:	56 95       	lsr	r21
 4b0:	47 95       	ror	r20
 4b2:	37 95       	ror	r19
 4b4:	27 95       	ror	r18
 4b6:	80 e1       	ldi	r24, 0x10	; 16
 4b8:	20 30       	cpi	r18, 0x00	; 0
 4ba:	38 07       	cpc	r19, r24
 4bc:	10 f0       	brcs	.+4      	; 0x4c2 <_ZN14HardwareSerial5beginEm+0x7c>
 4be:	dd 20       	and	r13, r13
 4c0:	b1 f6       	brne	.-84     	; 0x46e <_ZN14HardwareSerial5beginEm+0x28>
 4c2:	e8 89       	ldd	r30, Y+16	; 0x10
 4c4:	f9 89       	ldd	r31, Y+17	; 0x11
 4c6:	30 83       	st	Z, r19
 4c8:	ea 89       	ldd	r30, Y+18	; 0x12
 4ca:	fb 89       	ldd	r31, Y+19	; 0x13
 4cc:	20 83       	st	Z, r18
 4ce:	19 a2       	std	Y+33, r1	; 0x21
 4d0:	ee 89       	ldd	r30, Y+22	; 0x16
 4d2:	ff 89       	ldd	r31, Y+23	; 0x17
 4d4:	40 81       	ld	r20, Z
 4d6:	81 e0       	ldi	r24, 0x01	; 1
 4d8:	90 e0       	ldi	r25, 0x00	; 0
 4da:	9c 01       	movw	r18, r24
 4dc:	0c 8c       	ldd	r0, Y+28	; 0x1c
 4de:	02 c0       	rjmp	.+4      	; 0x4e4 <_ZN14HardwareSerial5beginEm+0x9e>
 4e0:	22 0f       	add	r18, r18
 4e2:	33 1f       	adc	r19, r19
 4e4:	0a 94       	dec	r0
 4e6:	e2 f7       	brpl	.-8      	; 0x4e0 <_ZN14HardwareSerial5beginEm+0x9a>
 4e8:	42 2b       	or	r20, r18
 4ea:	40 83       	st	Z, r20
 4ec:	ee 89       	ldd	r30, Y+22	; 0x16
 4ee:	ff 89       	ldd	r31, Y+23	; 0x17
 4f0:	40 81       	ld	r20, Z
 4f2:	9c 01       	movw	r18, r24
 4f4:	0d 8c       	ldd	r0, Y+29	; 0x1d
 4f6:	02 c0       	rjmp	.+4      	; 0x4fc <_ZN14HardwareSerial5beginEm+0xb6>
 4f8:	22 0f       	add	r18, r18
 4fa:	33 1f       	adc	r19, r19
 4fc:	0a 94       	dec	r0
 4fe:	e2 f7       	brpl	.-8      	; 0x4f8 <_ZN14HardwareSerial5beginEm+0xb2>
 500:	42 2b       	or	r20, r18
 502:	40 83       	st	Z, r20
 504:	ee 89       	ldd	r30, Y+22	; 0x16
 506:	ff 89       	ldd	r31, Y+23	; 0x17
 508:	40 81       	ld	r20, Z
 50a:	9c 01       	movw	r18, r24
 50c:	0e 8c       	ldd	r0, Y+30	; 0x1e
 50e:	02 c0       	rjmp	.+4      	; 0x514 <__stack+0x15>
 510:	22 0f       	add	r18, r18
 512:	33 1f       	adc	r19, r19
 514:	0a 94       	dec	r0
 516:	e2 f7       	brpl	.-8      	; 0x510 <__stack+0x11>
 518:	42 2b       	or	r20, r18
 51a:	40 83       	st	Z, r20
 51c:	ee 89       	ldd	r30, Y+22	; 0x16
 51e:	ff 89       	ldd	r31, Y+23	; 0x17
 520:	20 81       	ld	r18, Z
 522:	0f 8c       	ldd	r0, Y+31	; 0x1f
 524:	02 c0       	rjmp	.+4      	; 0x52a <__stack+0x2b>
 526:	88 0f       	add	r24, r24
 528:	99 1f       	adc	r25, r25
 52a:	0a 94       	dec	r0
 52c:	e2 f7       	brpl	.-8      	; 0x526 <__stack+0x27>
 52e:	80 95       	com	r24
 530:	82 23       	and	r24, r18
 532:	80 83       	st	Z, r24
 534:	df 91       	pop	r29
 536:	cf 91       	pop	r28
 538:	1f 91       	pop	r17
 53a:	0f 91       	pop	r16
 53c:	ff 90       	pop	r15
 53e:	ef 90       	pop	r14
 540:	df 90       	pop	r13
 542:	08 95       	ret

00000544 <_GLOBAL__I_rx_buffer>:
 544:	10 92 a8 01 	sts	0x01A8, r1
 548:	10 92 a7 01 	sts	0x01A7, r1
 54c:	88 ee       	ldi	r24, 0xE8	; 232
 54e:	93 e0       	ldi	r25, 0x03	; 3
 550:	a0 e0       	ldi	r26, 0x00	; 0
 552:	b0 e0       	ldi	r27, 0x00	; 0
 554:	80 93 a9 01 	sts	0x01A9, r24
 558:	90 93 aa 01 	sts	0x01AA, r25
 55c:	a0 93 ab 01 	sts	0x01AB, r26
 560:	b0 93 ac 01 	sts	0x01AC, r27
 564:	e7 ea       	ldi	r30, 0xA7	; 167
 566:	f1 e0       	ldi	r31, 0x01	; 1
 568:	8e e0       	ldi	r24, 0x0E	; 14
 56a:	91 e0       	ldi	r25, 0x01	; 1
 56c:	92 93       	st	-Z, r25
 56e:	82 93       	st	-Z, r24
 570:	8d e1       	ldi	r24, 0x1D	; 29
 572:	91 e0       	ldi	r25, 0x01	; 1
 574:	95 87       	std	Z+13, r25	; 0x0d
 576:	84 87       	std	Z+12, r24	; 0x0c
 578:	81 e6       	ldi	r24, 0x61	; 97
 57a:	91 e0       	ldi	r25, 0x01	; 1
 57c:	97 87       	std	Z+15, r25	; 0x0f
 57e:	86 87       	std	Z+14, r24	; 0x0e
 580:	85 ec       	ldi	r24, 0xC5	; 197
 582:	90 e0       	ldi	r25, 0x00	; 0
 584:	91 8b       	std	Z+17, r25	; 0x11
 586:	80 8b       	std	Z+16, r24	; 0x10
 588:	84 ec       	ldi	r24, 0xC4	; 196
 58a:	90 e0       	ldi	r25, 0x00	; 0
 58c:	93 8b       	std	Z+19, r25	; 0x13
 58e:	82 8b       	std	Z+18, r24	; 0x12
 590:	80 ec       	ldi	r24, 0xC0	; 192
 592:	90 e0       	ldi	r25, 0x00	; 0
 594:	95 8b       	std	Z+21, r25	; 0x15
 596:	84 8b       	std	Z+20, r24	; 0x14
 598:	81 ec       	ldi	r24, 0xC1	; 193
 59a:	90 e0       	ldi	r25, 0x00	; 0
 59c:	97 8b       	std	Z+23, r25	; 0x17
 59e:	86 8b       	std	Z+22, r24	; 0x16
 5a0:	82 ec       	ldi	r24, 0xC2	; 194
 5a2:	90 e0       	ldi	r25, 0x00	; 0
 5a4:	91 8f       	std	Z+25, r25	; 0x19
 5a6:	80 8f       	std	Z+24, r24	; 0x18
 5a8:	86 ec       	ldi	r24, 0xC6	; 198
 5aa:	90 e0       	ldi	r25, 0x00	; 0
 5ac:	93 8f       	std	Z+27, r25	; 0x1b
 5ae:	82 8f       	std	Z+26, r24	; 0x1a
 5b0:	84 e0       	ldi	r24, 0x04	; 4
 5b2:	84 8f       	std	Z+28, r24	; 0x1c
 5b4:	83 e0       	ldi	r24, 0x03	; 3
 5b6:	85 8f       	std	Z+29, r24	; 0x1d
 5b8:	87 e0       	ldi	r24, 0x07	; 7
 5ba:	86 8f       	std	Z+30, r24	; 0x1e
 5bc:	85 e0       	ldi	r24, 0x05	; 5
 5be:	87 8f       	std	Z+31, r24	; 0x1f
 5c0:	81 e0       	ldi	r24, 0x01	; 1
 5c2:	80 a3       	std	Z+32, r24	; 0x20
 5c4:	08 95       	ret

000005c6 <_ZN5Print5writeEPKhj>:
 5c6:	cf 92       	push	r12
 5c8:	df 92       	push	r13
 5ca:	ef 92       	push	r14
 5cc:	ff 92       	push	r15
 5ce:	0f 93       	push	r16
 5d0:	1f 93       	push	r17
 5d2:	cf 93       	push	r28
 5d4:	df 93       	push	r29
 5d6:	6c 01       	movw	r12, r24
 5d8:	7b 01       	movw	r14, r22
 5da:	8a 01       	movw	r16, r20
 5dc:	c0 e0       	ldi	r28, 0x00	; 0
 5de:	d0 e0       	ldi	r29, 0x00	; 0
 5e0:	0f c0       	rjmp	.+30     	; 0x600 <_ZN5Print5writeEPKhj+0x3a>
 5e2:	d7 01       	movw	r26, r14
 5e4:	6d 91       	ld	r22, X+
 5e6:	7d 01       	movw	r14, r26
 5e8:	d6 01       	movw	r26, r12
 5ea:	ed 91       	ld	r30, X+
 5ec:	fc 91       	ld	r31, X
 5ee:	01 90       	ld	r0, Z+
 5f0:	f0 81       	ld	r31, Z
 5f2:	e0 2d       	mov	r30, r0
 5f4:	c6 01       	movw	r24, r12
 5f6:	09 95       	icall
 5f8:	c8 0f       	add	r28, r24
 5fa:	d9 1f       	adc	r29, r25
 5fc:	01 50       	subi	r16, 0x01	; 1
 5fe:	10 40       	sbci	r17, 0x00	; 0
 600:	01 15       	cp	r16, r1
 602:	11 05       	cpc	r17, r1
 604:	71 f7       	brne	.-36     	; 0x5e2 <_ZN5Print5writeEPKhj+0x1c>
 606:	ce 01       	movw	r24, r28
 608:	df 91       	pop	r29
 60a:	cf 91       	pop	r28
 60c:	1f 91       	pop	r17
 60e:	0f 91       	pop	r16
 610:	ff 90       	pop	r15
 612:	ef 90       	pop	r14
 614:	df 90       	pop	r13
 616:	cf 90       	pop	r12
 618:	08 95       	ret

0000061a <_ZN5Print5writeEPKc>:
 61a:	61 15       	cp	r22, r1
 61c:	71 05       	cpc	r23, r1
 61e:	91 f0       	breq	.+36     	; 0x644 <_ZN5Print5writeEPKc+0x2a>
 620:	db 01       	movw	r26, r22
 622:	0d 90       	ld	r0, X+
 624:	00 20       	and	r0, r0
 626:	e9 f7       	brne	.-6      	; 0x622 <_ZN5Print5writeEPKc+0x8>
 628:	ad 01       	movw	r20, r26
 62a:	41 50       	subi	r20, 0x01	; 1
 62c:	50 40       	sbci	r21, 0x00	; 0
 62e:	46 1b       	sub	r20, r22
 630:	57 0b       	sbc	r21, r23
 632:	dc 01       	movw	r26, r24
 634:	ed 91       	ld	r30, X+
 636:	fc 91       	ld	r31, X
 638:	02 80       	ldd	r0, Z+2	; 0x02
 63a:	f3 81       	ldd	r31, Z+3	; 0x03
 63c:	e0 2d       	mov	r30, r0
 63e:	09 95       	icall
 640:	9c 01       	movw	r18, r24
 642:	02 c0       	rjmp	.+4      	; 0x648 <_ZN5Print5writeEPKc+0x2e>
 644:	20 e0       	ldi	r18, 0x00	; 0
 646:	30 e0       	ldi	r19, 0x00	; 0
 648:	c9 01       	movw	r24, r18
 64a:	08 95       	ret

0000064c <_ZN5Print5printEPKc>:
 64c:	0e 94 0d 03 	call	0x61a	; 0x61a <_ZN5Print5writeEPKc>
 650:	08 95       	ret

00000652 <__vector_16>:
 652:	1f 92       	push	r1
 654:	0f 92       	push	r0
 656:	0f b6       	in	r0, 0x3f	; 63
 658:	0f 92       	push	r0
 65a:	11 24       	eor	r1, r1
 65c:	2f 93       	push	r18
 65e:	3f 93       	push	r19
 660:	8f 93       	push	r24
 662:	9f 93       	push	r25
 664:	af 93       	push	r26
 666:	bf 93       	push	r27
 668:	80 91 cb 01 	lds	r24, 0x01CB
 66c:	90 91 cc 01 	lds	r25, 0x01CC
 670:	a0 91 cd 01 	lds	r26, 0x01CD
 674:	b0 91 ce 01 	lds	r27, 0x01CE
 678:	30 91 cf 01 	lds	r19, 0x01CF
 67c:	01 96       	adiw	r24, 0x01	; 1
 67e:	a1 1d       	adc	r26, r1
 680:	b1 1d       	adc	r27, r1
 682:	23 2f       	mov	r18, r19
 684:	2d 5f       	subi	r18, 0xFD	; 253
 686:	2d 37       	cpi	r18, 0x7D	; 125
 688:	20 f0       	brcs	.+8      	; 0x692 <__vector_16+0x40>
 68a:	2d 57       	subi	r18, 0x7D	; 125
 68c:	01 96       	adiw	r24, 0x01	; 1
 68e:	a1 1d       	adc	r26, r1
 690:	b1 1d       	adc	r27, r1
 692:	20 93 cf 01 	sts	0x01CF, r18
 696:	80 93 cb 01 	sts	0x01CB, r24
 69a:	90 93 cc 01 	sts	0x01CC, r25
 69e:	a0 93 cd 01 	sts	0x01CD, r26
 6a2:	b0 93 ce 01 	sts	0x01CE, r27
 6a6:	80 91 c7 01 	lds	r24, 0x01C7
 6aa:	90 91 c8 01 	lds	r25, 0x01C8
 6ae:	a0 91 c9 01 	lds	r26, 0x01C9
 6b2:	b0 91 ca 01 	lds	r27, 0x01CA
 6b6:	01 96       	adiw	r24, 0x01	; 1
 6b8:	a1 1d       	adc	r26, r1
 6ba:	b1 1d       	adc	r27, r1
 6bc:	80 93 c7 01 	sts	0x01C7, r24
 6c0:	90 93 c8 01 	sts	0x01C8, r25
 6c4:	a0 93 c9 01 	sts	0x01C9, r26
 6c8:	b0 93 ca 01 	sts	0x01CA, r27
 6cc:	bf 91       	pop	r27
 6ce:	af 91       	pop	r26
 6d0:	9f 91       	pop	r25
 6d2:	8f 91       	pop	r24
 6d4:	3f 91       	pop	r19
 6d6:	2f 91       	pop	r18
 6d8:	0f 90       	pop	r0
 6da:	0f be       	out	0x3f, r0	; 63
 6dc:	0f 90       	pop	r0
 6de:	1f 90       	pop	r1
 6e0:	18 95       	reti

000006e2 <micros>:
 6e2:	9f b7       	in	r25, 0x3f	; 63
 6e4:	f8 94       	cli
 6e6:	20 91 c7 01 	lds	r18, 0x01C7
 6ea:	30 91 c8 01 	lds	r19, 0x01C8
 6ee:	40 91 c9 01 	lds	r20, 0x01C9
 6f2:	50 91 ca 01 	lds	r21, 0x01CA
 6f6:	86 b5       	in	r24, 0x26	; 38
 6f8:	a8 9b       	sbis	0x15, 0	; 21
 6fa:	06 c0       	rjmp	.+12     	; 0x708 <micros+0x26>
 6fc:	8f 3f       	cpi	r24, 0xFF	; 255
 6fe:	21 f0       	breq	.+8      	; 0x708 <micros+0x26>
 700:	2f 5f       	subi	r18, 0xFF	; 255
 702:	3f 4f       	sbci	r19, 0xFF	; 255
 704:	4f 4f       	sbci	r20, 0xFF	; 255
 706:	5f 4f       	sbci	r21, 0xFF	; 255
 708:	9f bf       	out	0x3f, r25	; 63
 70a:	54 2f       	mov	r21, r20
 70c:	43 2f       	mov	r20, r19
 70e:	32 2f       	mov	r19, r18
 710:	22 27       	eor	r18, r18
 712:	28 0f       	add	r18, r24
 714:	31 1d       	adc	r19, r1
 716:	41 1d       	adc	r20, r1
 718:	51 1d       	adc	r21, r1
 71a:	82 e0       	ldi	r24, 0x02	; 2
 71c:	22 0f       	add	r18, r18
 71e:	33 1f       	adc	r19, r19
 720:	44 1f       	adc	r20, r20
 722:	55 1f       	adc	r21, r21
 724:	8a 95       	dec	r24
 726:	d1 f7       	brne	.-12     	; 0x71c <micros+0x3a>
 728:	b9 01       	movw	r22, r18
 72a:	ca 01       	movw	r24, r20
 72c:	08 95       	ret

0000072e <delay>:
 72e:	ef 92       	push	r14
 730:	ff 92       	push	r15
 732:	0f 93       	push	r16
 734:	1f 93       	push	r17
 736:	cf 93       	push	r28
 738:	df 93       	push	r29
 73a:	7b 01       	movw	r14, r22
 73c:	8c 01       	movw	r16, r24
 73e:	0e 94 71 03 	call	0x6e2	; 0x6e2 <micros>
 742:	eb 01       	movw	r28, r22
 744:	0f c0       	rjmp	.+30     	; 0x764 <delay+0x36>
 746:	0e 94 71 03 	call	0x6e2	; 0x6e2 <micros>
 74a:	6c 1b       	sub	r22, r28
 74c:	7d 0b       	sbc	r23, r29
 74e:	83 e0       	ldi	r24, 0x03	; 3
 750:	68 3e       	cpi	r22, 0xE8	; 232
 752:	78 07       	cpc	r23, r24
 754:	38 f0       	brcs	.+14     	; 0x764 <delay+0x36>
 756:	08 94       	sec
 758:	e1 08       	sbc	r14, r1
 75a:	f1 08       	sbc	r15, r1
 75c:	01 09       	sbc	r16, r1
 75e:	11 09       	sbc	r17, r1
 760:	c8 51       	subi	r28, 0x18	; 24
 762:	dc 4f       	sbci	r29, 0xFC	; 252
 764:	e1 14       	cp	r14, r1
 766:	f1 04       	cpc	r15, r1
 768:	01 05       	cpc	r16, r1
 76a:	11 05       	cpc	r17, r1
 76c:	61 f7       	brne	.-40     	; 0x746 <delay+0x18>
 76e:	df 91       	pop	r29
 770:	cf 91       	pop	r28
 772:	1f 91       	pop	r17
 774:	0f 91       	pop	r16
 776:	ff 90       	pop	r15
 778:	ef 90       	pop	r14
 77a:	08 95       	ret

0000077c <init>:
 77c:	78 94       	sei
 77e:	84 b5       	in	r24, 0x24	; 36
 780:	82 60       	ori	r24, 0x02	; 2
 782:	84 bd       	out	0x24, r24	; 36
 784:	84 b5       	in	r24, 0x24	; 36
 786:	81 60       	ori	r24, 0x01	; 1
 788:	84 bd       	out	0x24, r24	; 36
 78a:	85 b5       	in	r24, 0x25	; 37
 78c:	82 60       	ori	r24, 0x02	; 2
 78e:	85 bd       	out	0x25, r24	; 37
 790:	85 b5       	in	r24, 0x25	; 37
 792:	81 60       	ori	r24, 0x01	; 1
 794:	85 bd       	out	0x25, r24	; 37
 796:	ee e6       	ldi	r30, 0x6E	; 110
 798:	f0 e0       	ldi	r31, 0x00	; 0
 79a:	80 81       	ld	r24, Z
 79c:	81 60       	ori	r24, 0x01	; 1
 79e:	80 83       	st	Z, r24
 7a0:	e1 e8       	ldi	r30, 0x81	; 129
 7a2:	f0 e0       	ldi	r31, 0x00	; 0
 7a4:	10 82       	st	Z, r1
 7a6:	80 81       	ld	r24, Z
 7a8:	82 60       	ori	r24, 0x02	; 2
 7aa:	80 83       	st	Z, r24
 7ac:	80 81       	ld	r24, Z
 7ae:	81 60       	ori	r24, 0x01	; 1
 7b0:	80 83       	st	Z, r24
 7b2:	e0 e8       	ldi	r30, 0x80	; 128
 7b4:	f0 e0       	ldi	r31, 0x00	; 0
 7b6:	80 81       	ld	r24, Z
 7b8:	81 60       	ori	r24, 0x01	; 1
 7ba:	80 83       	st	Z, r24
 7bc:	e1 eb       	ldi	r30, 0xB1	; 177
 7be:	f0 e0       	ldi	r31, 0x00	; 0
 7c0:	80 81       	ld	r24, Z
 7c2:	84 60       	ori	r24, 0x04	; 4
 7c4:	80 83       	st	Z, r24
 7c6:	e0 eb       	ldi	r30, 0xB0	; 176
 7c8:	f0 e0       	ldi	r31, 0x00	; 0
 7ca:	80 81       	ld	r24, Z
 7cc:	81 60       	ori	r24, 0x01	; 1
 7ce:	80 83       	st	Z, r24
 7d0:	ea e7       	ldi	r30, 0x7A	; 122
 7d2:	f0 e0       	ldi	r31, 0x00	; 0
 7d4:	80 81       	ld	r24, Z
 7d6:	84 60       	ori	r24, 0x04	; 4
 7d8:	80 83       	st	Z, r24
 7da:	80 81       	ld	r24, Z
 7dc:	82 60       	ori	r24, 0x02	; 2
 7de:	80 83       	st	Z, r24
 7e0:	80 81       	ld	r24, Z
 7e2:	81 60       	ori	r24, 0x01	; 1
 7e4:	80 83       	st	Z, r24
 7e6:	80 81       	ld	r24, Z
 7e8:	80 68       	ori	r24, 0x80	; 128
 7ea:	80 83       	st	Z, r24
 7ec:	10 92 c1 00 	sts	0x00C1, r1
 7f0:	08 95       	ret

000007f2 <turnOffPWM>:
 7f2:	83 30       	cpi	r24, 0x03	; 3
 7f4:	71 f0       	breq	.+28     	; 0x812 <turnOffPWM+0x20>
 7f6:	84 30       	cpi	r24, 0x04	; 4
 7f8:	28 f4       	brcc	.+10     	; 0x804 <turnOffPWM+0x12>
 7fa:	81 30       	cpi	r24, 0x01	; 1
 7fc:	a1 f0       	breq	.+40     	; 0x826 <turnOffPWM+0x34>
 7fe:	82 30       	cpi	r24, 0x02	; 2
 800:	21 f5       	brne	.+72     	; 0x84a <turnOffPWM+0x58>
 802:	14 c0       	rjmp	.+40     	; 0x82c <turnOffPWM+0x3a>
 804:	86 30       	cpi	r24, 0x06	; 6
 806:	b1 f0       	breq	.+44     	; 0x834 <turnOffPWM+0x42>
 808:	87 30       	cpi	r24, 0x07	; 7
 80a:	d1 f0       	breq	.+52     	; 0x840 <turnOffPWM+0x4e>
 80c:	84 30       	cpi	r24, 0x04	; 4
 80e:	e9 f4       	brne	.+58     	; 0x84a <turnOffPWM+0x58>
 810:	04 c0       	rjmp	.+8      	; 0x81a <turnOffPWM+0x28>
 812:	80 91 80 00 	lds	r24, 0x0080
 816:	8f 77       	andi	r24, 0x7F	; 127
 818:	03 c0       	rjmp	.+6      	; 0x820 <turnOffPWM+0x2e>
 81a:	80 91 80 00 	lds	r24, 0x0080
 81e:	8f 7d       	andi	r24, 0xDF	; 223
 820:	80 93 80 00 	sts	0x0080, r24
 824:	08 95       	ret
 826:	84 b5       	in	r24, 0x24	; 36
 828:	8f 77       	andi	r24, 0x7F	; 127
 82a:	02 c0       	rjmp	.+4      	; 0x830 <turnOffPWM+0x3e>
 82c:	84 b5       	in	r24, 0x24	; 36
 82e:	8f 7d       	andi	r24, 0xDF	; 223
 830:	84 bd       	out	0x24, r24	; 36
 832:	08 95       	ret
 834:	80 91 b0 00 	lds	r24, 0x00B0
 838:	8f 77       	andi	r24, 0x7F	; 127
 83a:	80 93 b0 00 	sts	0x00B0, r24
 83e:	08 95       	ret
 840:	80 91 b0 00 	lds	r24, 0x00B0
 844:	8f 7d       	andi	r24, 0xDF	; 223
 846:	80 93 b0 00 	sts	0x00B0, r24
 84a:	08 95       	ret

0000084c <pinMode>:
 84c:	ef 92       	push	r14
 84e:	ff 92       	push	r15
 850:	cf 93       	push	r28
 852:	df 93       	push	r29
 854:	90 e0       	ldi	r25, 0x00	; 0
 856:	fc 01       	movw	r30, r24
 858:	e6 56       	subi	r30, 0x66	; 102
 85a:	ff 4f       	sbci	r31, 0xFF	; 255
 85c:	44 91       	lpm	r20, Z+
 85e:	8a 57       	subi	r24, 0x7A	; 122
 860:	9f 4f       	sbci	r25, 0xFF	; 255
 862:	fc 01       	movw	r30, r24
 864:	84 91       	lpm	r24, Z+
 866:	88 23       	and	r24, r24
 868:	89 f1       	breq	.+98     	; 0x8cc <pinMode+0x80>
 86a:	90 e0       	ldi	r25, 0x00	; 0
 86c:	88 0f       	add	r24, r24
 86e:	99 1f       	adc	r25, r25
 870:	fc 01       	movw	r30, r24
 872:	e8 59       	subi	r30, 0x98	; 152
 874:	ff 4f       	sbci	r31, 0xFF	; 255
 876:	25 91       	lpm	r18, Z+
 878:	34 91       	lpm	r19, Z+
 87a:	d9 01       	movw	r26, r18
 87c:	8e 58       	subi	r24, 0x8E	; 142
 87e:	9f 4f       	sbci	r25, 0xFF	; 255
 880:	fc 01       	movw	r30, r24
 882:	25 91       	lpm	r18, Z+
 884:	34 91       	lpm	r19, Z+
 886:	e2 2e       	mov	r14, r18
 888:	e7 01       	movw	r28, r14
 88a:	7e 01       	movw	r14, r28
 88c:	f3 2e       	mov	r15, r19
 88e:	e7 01       	movw	r28, r14
 890:	66 23       	and	r22, r22
 892:	49 f4       	brne	.+18     	; 0x8a6 <pinMode+0x5a>
 894:	9f b7       	in	r25, 0x3f	; 63
 896:	f8 94       	cli
 898:	8c 91       	ld	r24, X
 89a:	40 95       	com	r20
 89c:	84 23       	and	r24, r20
 89e:	8c 93       	st	X, r24
 8a0:	88 81       	ld	r24, Y
 8a2:	84 23       	and	r24, r20
 8a4:	0b c0       	rjmp	.+22     	; 0x8bc <pinMode+0x70>
 8a6:	62 30       	cpi	r22, 0x02	; 2
 8a8:	59 f4       	brne	.+22     	; 0x8c0 <pinMode+0x74>
 8aa:	9f b7       	in	r25, 0x3f	; 63
 8ac:	f8 94       	cli
 8ae:	8c 91       	ld	r24, X
 8b0:	24 2f       	mov	r18, r20
 8b2:	20 95       	com	r18
 8b4:	82 23       	and	r24, r18
 8b6:	8c 93       	st	X, r24
 8b8:	88 81       	ld	r24, Y
 8ba:	84 2b       	or	r24, r20
 8bc:	88 83       	st	Y, r24
 8be:	05 c0       	rjmp	.+10     	; 0x8ca <pinMode+0x7e>
 8c0:	9f b7       	in	r25, 0x3f	; 63
 8c2:	f8 94       	cli
 8c4:	8c 91       	ld	r24, X
 8c6:	84 2b       	or	r24, r20
 8c8:	8c 93       	st	X, r24
 8ca:	9f bf       	out	0x3f, r25	; 63
 8cc:	df 91       	pop	r29
 8ce:	cf 91       	pop	r28
 8d0:	ff 90       	pop	r15
 8d2:	ef 90       	pop	r14
 8d4:	08 95       	ret

000008d6 <digitalWrite>:
 8d6:	0f 93       	push	r16
 8d8:	1f 93       	push	r17
 8da:	df 93       	push	r29
 8dc:	cf 93       	push	r28
 8de:	0f 92       	push	r0
 8e0:	cd b7       	in	r28, 0x3d	; 61
 8e2:	de b7       	in	r29, 0x3e	; 62
 8e4:	28 2f       	mov	r18, r24
 8e6:	30 e0       	ldi	r19, 0x00	; 0
 8e8:	f9 01       	movw	r30, r18
 8ea:	e2 55       	subi	r30, 0x52	; 82
 8ec:	ff 4f       	sbci	r31, 0xFF	; 255
 8ee:	84 91       	lpm	r24, Z+
 8f0:	f9 01       	movw	r30, r18
 8f2:	e6 56       	subi	r30, 0x66	; 102
 8f4:	ff 4f       	sbci	r31, 0xFF	; 255
 8f6:	14 91       	lpm	r17, Z+
 8f8:	2a 57       	subi	r18, 0x7A	; 122
 8fa:	3f 4f       	sbci	r19, 0xFF	; 255
 8fc:	f9 01       	movw	r30, r18
 8fe:	04 91       	lpm	r16, Z+
 900:	00 23       	and	r16, r16
 902:	d9 f0       	breq	.+54     	; 0x93a <digitalWrite+0x64>
 904:	88 23       	and	r24, r24
 906:	21 f0       	breq	.+8      	; 0x910 <digitalWrite+0x3a>
 908:	69 83       	std	Y+1, r22	; 0x01
 90a:	0e 94 f9 03 	call	0x7f2	; 0x7f2 <turnOffPWM>
 90e:	69 81       	ldd	r22, Y+1	; 0x01
 910:	e0 2f       	mov	r30, r16
 912:	f0 e0       	ldi	r31, 0x00	; 0
 914:	ee 0f       	add	r30, r30
 916:	ff 1f       	adc	r31, r31
 918:	ee 58       	subi	r30, 0x8E	; 142
 91a:	ff 4f       	sbci	r31, 0xFF	; 255
 91c:	85 91       	lpm	r24, Z+
 91e:	94 91       	lpm	r25, Z+
 920:	dc 01       	movw	r26, r24
 922:	9f b7       	in	r25, 0x3f	; 63
 924:	f8 94       	cli
 926:	66 23       	and	r22, r22
 928:	21 f4       	brne	.+8      	; 0x932 <digitalWrite+0x5c>
 92a:	8c 91       	ld	r24, X
 92c:	10 95       	com	r17
 92e:	81 23       	and	r24, r17
 930:	02 c0       	rjmp	.+4      	; 0x936 <digitalWrite+0x60>
 932:	8c 91       	ld	r24, X
 934:	81 2b       	or	r24, r17
 936:	8c 93       	st	X, r24
 938:	9f bf       	out	0x3f, r25	; 63
 93a:	0f 90       	pop	r0
 93c:	cf 91       	pop	r28
 93e:	df 91       	pop	r29
 940:	1f 91       	pop	r17
 942:	0f 91       	pop	r16
 944:	08 95       	ret

00000946 <digitalRead>:
 946:	0f 93       	push	r16
 948:	1f 93       	push	r17
 94a:	28 2f       	mov	r18, r24
 94c:	30 e0       	ldi	r19, 0x00	; 0
 94e:	f9 01       	movw	r30, r18
 950:	e2 55       	subi	r30, 0x52	; 82
 952:	ff 4f       	sbci	r31, 0xFF	; 255
 954:	84 91       	lpm	r24, Z+
 956:	f9 01       	movw	r30, r18
 958:	e6 56       	subi	r30, 0x66	; 102
 95a:	ff 4f       	sbci	r31, 0xFF	; 255
 95c:	04 91       	lpm	r16, Z+
 95e:	2a 57       	subi	r18, 0x7A	; 122
 960:	3f 4f       	sbci	r19, 0xFF	; 255
 962:	f9 01       	movw	r30, r18
 964:	14 91       	lpm	r17, Z+
 966:	11 23       	and	r17, r17
 968:	91 f0       	breq	.+36     	; 0x98e <digitalRead+0x48>
 96a:	88 23       	and	r24, r24
 96c:	11 f0       	breq	.+4      	; 0x972 <digitalRead+0x2c>
 96e:	0e 94 f9 03 	call	0x7f2	; 0x7f2 <turnOffPWM>
 972:	e1 2f       	mov	r30, r17
 974:	f0 e0       	ldi	r31, 0x00	; 0
 976:	ee 0f       	add	r30, r30
 978:	ff 1f       	adc	r31, r31
 97a:	e4 58       	subi	r30, 0x84	; 132
 97c:	ff 4f       	sbci	r31, 0xFF	; 255
 97e:	85 91       	lpm	r24, Z+
 980:	94 91       	lpm	r25, Z+
 982:	dc 01       	movw	r26, r24
 984:	8c 91       	ld	r24, X
 986:	80 23       	and	r24, r16
 988:	21 e0       	ldi	r18, 0x01	; 1
 98a:	30 e0       	ldi	r19, 0x00	; 0
 98c:	11 f4       	brne	.+4      	; 0x992 <digitalRead+0x4c>
 98e:	20 e0       	ldi	r18, 0x00	; 0
 990:	30 e0       	ldi	r19, 0x00	; 0
 992:	c9 01       	movw	r24, r18
 994:	1f 91       	pop	r17
 996:	0f 91       	pop	r16
 998:	08 95       	ret

0000099a <__udivmodsi4>:
 99a:	a1 e2       	ldi	r26, 0x21	; 33
 99c:	1a 2e       	mov	r1, r26
 99e:	aa 1b       	sub	r26, r26
 9a0:	bb 1b       	sub	r27, r27
 9a2:	fd 01       	movw	r30, r26
 9a4:	0d c0       	rjmp	.+26     	; 0x9c0 <__udivmodsi4_ep>

000009a6 <__udivmodsi4_loop>:
 9a6:	aa 1f       	adc	r26, r26
 9a8:	bb 1f       	adc	r27, r27
 9aa:	ee 1f       	adc	r30, r30
 9ac:	ff 1f       	adc	r31, r31
 9ae:	a2 17       	cp	r26, r18
 9b0:	b3 07       	cpc	r27, r19
 9b2:	e4 07       	cpc	r30, r20
 9b4:	f5 07       	cpc	r31, r21
 9b6:	20 f0       	brcs	.+8      	; 0x9c0 <__udivmodsi4_ep>
 9b8:	a2 1b       	sub	r26, r18
 9ba:	b3 0b       	sbc	r27, r19
 9bc:	e4 0b       	sbc	r30, r20
 9be:	f5 0b       	sbc	r31, r21

000009c0 <__udivmodsi4_ep>:
 9c0:	66 1f       	adc	r22, r22
 9c2:	77 1f       	adc	r23, r23
 9c4:	88 1f       	adc	r24, r24
 9c6:	99 1f       	adc	r25, r25
 9c8:	1a 94       	dec	r1
 9ca:	69 f7       	brne	.-38     	; 0x9a6 <__udivmodsi4_loop>
 9cc:	60 95       	com	r22
 9ce:	70 95       	com	r23
 9d0:	80 95       	com	r24
 9d2:	90 95       	com	r25
 9d4:	9b 01       	movw	r18, r22
 9d6:	ac 01       	movw	r20, r24
 9d8:	bd 01       	movw	r22, r26
 9da:	cf 01       	movw	r24, r30
 9dc:	08 95       	ret

000009de <__tablejump2__>:
 9de:	ee 0f       	add	r30, r30
 9e0:	ff 1f       	adc	r31, r31

000009e2 <__tablejump__>:
 9e2:	05 90       	lpm	r0, Z+
 9e4:	f4 91       	lpm	r31, Z+
 9e6:	e0 2d       	mov	r30, r0
 9e8:	09 94       	ijmp

000009ea <_exit>:
 9ea:	f8 94       	cli

000009ec <__stop_program>:
 9ec:	ff cf       	rjmp	.-2      	; 0x9ec <__stop_program>
